target datalayout = "e-m:e-p270:32:32-p271:32:32-p272:64:64-i64:64-i128:128-f80:128-n8:16:32:64-S128"
target triple = "x86_64-pc-linux-gnu"

%struct.z_stream_s = type { ptr, i32, i64, ptr, i32, i64, ptr, ptr, ptr, ptr, ptr, i32, i64, i64 }
%struct.internal_state = type { ptr, i32, ptr, i64, ptr, i32, i32, ptr, i32, i8, i32, i32, i32, i32, ptr, i64, ptr, ptr, i32, i32, i32, i32, i32, i64, i32, i32, i32, i32, i32, i32, i32, i32, i32, i32, i32, i32, i32, [573 x %struct.ct_data_s], [61 x %struct.ct_data_s], [39 x %struct.ct_data_s], %struct.tree_desc_s, %struct.tree_desc_s, %struct.tree_desc_s, [16 x i16], [573 x i32], i32, i32, [573 x i8], ptr, i32, i32, ptr, i64, i64, i32, i32, i16, i32, i64 }
%struct.ct_data_s = type { %union.anon, %union.anon.0 }
%union.anon = type { i16 }
%union.anon.0 = type { i16 }
%struct.tree_desc_s = type { ptr, i32, ptr }

; Function Attrs: nounwind uwtable
define i32 @deflateSetDictionary(ptr noundef %0, ptr noundef %1, i32 noundef %2) #0 {
  %4 = alloca i32, align 4
  %5 = alloca ptr, align 8
  %6 = alloca ptr, align 8
  %7 = alloca i32, align 4
  %8 = alloca ptr, align 8
  %9 = alloca i32, align 4
  %10 = alloca i32, align 4
  %11 = alloca i32, align 4
  %12 = alloca i32, align 4
  %13 = alloca ptr, align 8
  %14 = alloca i32, align 4
  store ptr %0, ptr %5, align 8, !tbaa !3
  store ptr %1, ptr %6, align 8, !tbaa !10
  store i32 %2, ptr %7, align 4, !tbaa !8
  call void @llvm.lifetime.start.p0(i64 8, ptr %8) #5
  call void @llvm.lifetime.start.p0(i64 4, ptr %9) #5
  call void @llvm.lifetime.start.p0(i64 4, ptr %10) #5
  call void @llvm.lifetime.start.p0(i64 4, ptr %11) #5
  call void @llvm.lifetime.start.p0(i64 4, ptr %12) #5
  call void @llvm.lifetime.start.p0(i64 8, ptr %13) #5
  %15 = load ptr, ptr %5, align 8, !tbaa !3
  %16 = icmp eq ptr %15, null
  br i1 %16, label %25, label %17

17:                                               ; preds = %3
  %18 = load ptr, ptr %5, align 8, !tbaa !3
  %19 = getelementptr inbounds nuw %struct.z_stream_s, ptr %18, i32 0, i32 7
  %20 = load ptr, ptr %19, align 8, !tbaa !21
  %21 = icmp eq ptr %20, null
  br i1 %21, label %25, label %22

22:                                               ; preds = %17
  %23 = load ptr, ptr %6, align 8, !tbaa !10
  %24 = icmp eq ptr %23, null
  br i1 %24, label %25, label %26

25:                                               ; preds = %22, %17, %3
  store i32 -2, ptr %4, align 4
  store i32 1, ptr %14, align 4
  br label %239

26:                                               ; preds = %22
  %27 = load ptr, ptr %5, align 8, !tbaa !3
  %28 = getelementptr inbounds nuw %struct.z_stream_s, ptr %27, i32 0, i32 7
  %29 = load ptr, ptr %28, align 8, !tbaa !21
  store ptr %29, ptr %8, align 8, !tbaa !20
  %30 = load ptr, ptr %8, align 8, !tbaa !20
  %31 = getelementptr inbounds nuw %struct.internal_state, ptr %30, i32 0, i32 6
  %32 = load i32, ptr %31, align 4, !tbaa !30
  store i32 %32, ptr %11, align 4, !tbaa !8
  %33 = load i32, ptr %11, align 4, !tbaa !8
  %34 = icmp eq i32 %33, 2
  br i1 %34, label %48, label %35

35:                                               ; preds = %26
  %36 = load i32, ptr %11, align 4, !tbaa !8
  %37 = icmp eq i32 %36, 1
  br i1 %37, label %38, label %43

38:                                               ; preds = %35
  %39 = load ptr, ptr %8, align 8, !tbaa !20
  %40 = getelementptr inbounds nuw %struct.internal_state, ptr %39, i32 0, i32 1
  %41 = load i32, ptr %40, align 8, !tbaa !47
  %42 = icmp ne i32 %41, 42
  br i1 %42, label %48, label %43

43:                                               ; preds = %38, %35
  %44 = load ptr, ptr %8, align 8, !tbaa !20
  %45 = getelementptr inbounds nuw %struct.internal_state, ptr %44, i32 0, i32 29
  %46 = load i32, ptr %45, align 4, !tbaa !53
  %47 = icmp ne i32 %46, 0
  br i1 %47, label %48, label %49

48:                                               ; preds = %43, %38, %26
  store i32 -2, ptr %4, align 4
  store i32 1, ptr %14, align 4
  br label %239

49:                                               ; preds = %43
  %50 = load i32, ptr %11, align 4, !tbaa !8
  %51 = icmp eq i32 %50, 1
  br i1 %51, label %52, label %61

52:                                               ; preds = %49
  %53 = load ptr, ptr %5, align 8, !tbaa !3
  %54 = getelementptr inbounds nuw %struct.z_stream_s, ptr %53, i32 0, i32 12
  %55 = load i64, ptr %54, align 8, !tbaa !54
  %56 = load ptr, ptr %6, align 8, !tbaa !10
  %57 = load i32, ptr %7, align 4, !tbaa !8
  %58 = call i64 @adler32(i64 noundef %55, ptr noundef %56, i32 noundef %57)
  %59 = load ptr, ptr %5, align 8, !tbaa !3
  %60 = getelementptr inbounds nuw %struct.z_stream_s, ptr %59, i32 0, i32 12
  store i64 %58, ptr %60, align 8, !tbaa !54
  br label %61

61:                                               ; preds = %52, %49
  %62 = load ptr, ptr %8, align 8, !tbaa !20
  %63 = getelementptr inbounds nuw %struct.internal_state, ptr %62, i32 0, i32 6
  store i32 0, ptr %63, align 4, !tbaa !30
  %64 = load i32, ptr %7, align 4, !tbaa !8
  %65 = load ptr, ptr %8, align 8, !tbaa !20
  %66 = getelementptr inbounds nuw %struct.internal_state, ptr %65, i32 0, i32 11
  %67 = load i32, ptr %66, align 4, !tbaa !33
  %68 = icmp uge i32 %64, %67
  br i1 %68, label %69, label %109

69:                                               ; preds = %61
  %70 = load i32, ptr %11, align 4, !tbaa !8
  %71 = icmp eq i32 %70, 0
  br i1 %71, label %72, label %97

72:                                               ; preds = %69
  %73 = load ptr, ptr %8, align 8, !tbaa !20
  %74 = getelementptr inbounds nuw %struct.internal_state, ptr %73, i32 0, i32 17
  %75 = load ptr, ptr %74, align 8, !tbaa !41
  %76 = load ptr, ptr %8, align 8, !tbaa !20
  %77 = getelementptr inbounds nuw %struct.internal_state, ptr %76, i32 0, i32 19
  %78 = load i32, ptr %77, align 4, !tbaa !36
  %79 = sub i32 %78, 1
  %80 = zext i32 %79 to i64
  %81 = getelementptr inbounds nuw i16, ptr %75, i64 %80
  store i16 0, ptr %81, align 2, !tbaa !55
  %82 = load ptr, ptr %8, align 8, !tbaa !20
  %83 = getelementptr inbounds nuw %struct.internal_state, ptr %82, i32 0, i32 17
  %84 = load ptr, ptr %83, align 8, !tbaa !41
  %85 = load ptr, ptr %8, align 8, !tbaa !20
  %86 = getelementptr inbounds nuw %struct.internal_state, ptr %85, i32 0, i32 19
  %87 = load i32, ptr %86, align 4, !tbaa !36
  %88 = sub i32 %87, 1
  %89 = zext i32 %88 to i64
  %90 = mul i64 %89, 2
  call void @llvm.memset.p0.i64(ptr align 1 %84, i8 0, i64 %90, i1 false)
  %91 = load ptr, ptr %8, align 8, !tbaa !20
  %92 = getelementptr inbounds nuw %struct.internal_state, ptr %91, i32 0, i32 27
  store i32 0, ptr %92, align 4, !tbaa !56
  %93 = load ptr, ptr %8, align 8, !tbaa !20
  %94 = getelementptr inbounds nuw %struct.internal_state, ptr %93, i32 0, i32 23
  store i64 0, ptr %94, align 8, !tbaa !57
  %95 = load ptr, ptr %8, align 8, !tbaa !20
  %96 = getelementptr inbounds nuw %struct.internal_state, ptr %95, i32 0, i32 55
  store i32 0, ptr %96, align 4, !tbaa !58
  br label %97

97:                                               ; preds = %72, %69
  %98 = load i32, ptr %7, align 4, !tbaa !8
  %99 = load ptr, ptr %8, align 8, !tbaa !20
  %100 = getelementptr inbounds nuw %struct.internal_state, ptr %99, i32 0, i32 11
  %101 = load i32, ptr %100, align 4, !tbaa !33
  %102 = sub i32 %98, %101
  %103 = load ptr, ptr %6, align 8, !tbaa !10
  %104 = zext i32 %102 to i64
  %105 = getelementptr inbounds nuw i8, ptr %103, i64 %104
  store ptr %105, ptr %6, align 8, !tbaa !10
  %106 = load ptr, ptr %8, align 8, !tbaa !20
  %107 = getelementptr inbounds nuw %struct.internal_state, ptr %106, i32 0, i32 11
  %108 = load i32, ptr %107, align 4, !tbaa !33
  store i32 %108, ptr %7, align 4, !tbaa !8
  br label %109

109:                                              ; preds = %97, %61
  %110 = load ptr, ptr %5, align 8, !tbaa !3
  %111 = getelementptr inbounds nuw %struct.z_stream_s, ptr %110, i32 0, i32 1
  %112 = load i32, ptr %111, align 8, !tbaa !59
  store i32 %112, ptr %12, align 4, !tbaa !8
  %113 = load ptr, ptr %5, align 8, !tbaa !3
  %114 = getelementptr inbounds nuw %struct.z_stream_s, ptr %113, i32 0, i32 0
  %115 = load ptr, ptr %114, align 8, !tbaa !60
  store ptr %115, ptr %13, align 8, !tbaa !10
  %116 = load i32, ptr %7, align 4, !tbaa !8
  %117 = load ptr, ptr %5, align 8, !tbaa !3
  %118 = getelementptr inbounds nuw %struct.z_stream_s, ptr %117, i32 0, i32 1
  store i32 %116, ptr %118, align 8, !tbaa !59
  %119 = load ptr, ptr %6, align 8, !tbaa !10
  %120 = load ptr, ptr %5, align 8, !tbaa !3
  %121 = getelementptr inbounds nuw %struct.z_stream_s, ptr %120, i32 0, i32 0
  store ptr %119, ptr %121, align 8, !tbaa !60
  %122 = load ptr, ptr %8, align 8, !tbaa !20
  call void @fill_window(ptr noundef %122)
  br label %123

123:                                              ; preds = %196, %109
  %124 = load ptr, ptr %8, align 8, !tbaa !20
  %125 = getelementptr inbounds nuw %struct.internal_state, ptr %124, i32 0, i32 29
  %126 = load i32, ptr %125, align 4, !tbaa !53
  %127 = icmp uge i32 %126, 3
  br i1 %127, label %128, label %203

128:                                              ; preds = %123
  %129 = load ptr, ptr %8, align 8, !tbaa !20
  %130 = getelementptr inbounds nuw %struct.internal_state, ptr %129, i32 0, i32 27
  %131 = load i32, ptr %130, align 4, !tbaa !56
  store i32 %131, ptr %9, align 4, !tbaa !8
  %132 = load ptr, ptr %8, align 8, !tbaa !20
  %133 = getelementptr inbounds nuw %struct.internal_state, ptr %132, i32 0, i32 29
  %134 = load i32, ptr %133, align 4, !tbaa !53
  %135 = sub i32 %134, 2
  store i32 %135, ptr %10, align 4, !tbaa !8
  br label %136

136:                                              ; preds = %192, %128
  %137 = load ptr, ptr %8, align 8, !tbaa !20
  %138 = getelementptr inbounds nuw %struct.internal_state, ptr %137, i32 0, i32 18
  %139 = load i32, ptr %138, align 8, !tbaa !61
  %140 = load ptr, ptr %8, align 8, !tbaa !20
  %141 = getelementptr inbounds nuw %struct.internal_state, ptr %140, i32 0, i32 22
  %142 = load i32, ptr %141, align 8, !tbaa !38
  %143 = shl i32 %139, %142
  %144 = load ptr, ptr %8, align 8, !tbaa !20
  %145 = getelementptr inbounds nuw %struct.internal_state, ptr %144, i32 0, i32 14
  %146 = load ptr, ptr %145, align 8, !tbaa !39
  %147 = load i32, ptr %9, align 4, !tbaa !8
  %148 = add i32 %147, 3
  %149 = sub i32 %148, 1
  %150 = zext i32 %149 to i64
  %151 = getelementptr inbounds nuw i8, ptr %146, i64 %150
  %152 = load i8, ptr %151, align 1, !tbaa !12
  %153 = zext i8 %152 to i32
  %154 = xor i32 %143, %153
  %155 = load ptr, ptr %8, align 8, !tbaa !20
  %156 = getelementptr inbounds nuw %struct.internal_state, ptr %155, i32 0, i32 21
  %157 = load i32, ptr %156, align 4, !tbaa !37
  %158 = and i32 %154, %157
  %159 = load ptr, ptr %8, align 8, !tbaa !20
  %160 = getelementptr inbounds nuw %struct.internal_state, ptr %159, i32 0, i32 18
  store i32 %158, ptr %160, align 8, !tbaa !61
  %161 = load ptr, ptr %8, align 8, !tbaa !20
  %162 = getelementptr inbounds nuw %struct.internal_state, ptr %161, i32 0, i32 17
  %163 = load ptr, ptr %162, align 8, !tbaa !41
  %164 = load ptr, ptr %8, align 8, !tbaa !20
  %165 = getelementptr inbounds nuw %struct.internal_state, ptr %164, i32 0, i32 18
  %166 = load i32, ptr %165, align 8, !tbaa !61
  %167 = zext i32 %166 to i64
  %168 = getelementptr inbounds nuw i16, ptr %163, i64 %167
  %169 = load i16, ptr %168, align 2, !tbaa !55
  %170 = load ptr, ptr %8, align 8, !tbaa !20
  %171 = getelementptr inbounds nuw %struct.internal_state, ptr %170, i32 0, i32 16
  %172 = load ptr, ptr %171, align 8, !tbaa !40
  %173 = load i32, ptr %9, align 4, !tbaa !8
  %174 = load ptr, ptr %8, align 8, !tbaa !20
  %175 = getelementptr inbounds nuw %struct.internal_state, ptr %174, i32 0, i32 13
  %176 = load i32, ptr %175, align 4, !tbaa !34
  %177 = and i32 %173, %176
  %178 = zext i32 %177 to i64
  %179 = getelementptr inbounds nuw i16, ptr %172, i64 %178
  store i16 %169, ptr %179, align 2, !tbaa !55
  %180 = load i32, ptr %9, align 4, !tbaa !8
  %181 = trunc i32 %180 to i16
  %182 = load ptr, ptr %8, align 8, !tbaa !20
  %183 = getelementptr inbounds nuw %struct.internal_state, ptr %182, i32 0, i32 17
  %184 = load ptr, ptr %183, align 8, !tbaa !41
  %185 = load ptr, ptr %8, align 8, !tbaa !20
  %186 = getelementptr inbounds nuw %struct.internal_state, ptr %185, i32 0, i32 18
  %187 = load i32, ptr %186, align 8, !tbaa !61
  %188 = zext i32 %187 to i64
  %189 = getelementptr inbounds nuw i16, ptr %184, i64 %188
  store i16 %181, ptr %189, align 2, !tbaa !55
  %190 = load i32, ptr %9, align 4, !tbaa !8
  %191 = add i32 %190, 1
  store i32 %191, ptr %9, align 4, !tbaa !8
  br label %192

192:                                              ; preds = %136
  %193 = load i32, ptr %10, align 4, !tbaa !8
  %194 = add i32 %193, -1
  store i32 %194, ptr %10, align 4, !tbaa !8
  %195 = icmp ne i32 %194, 0
  br i1 %195, label %136, label %196, !llvm.loop !62

196:                                              ; preds = %192
  %197 = load i32, ptr %9, align 4, !tbaa !8
  %198 = load ptr, ptr %8, align 8, !tbaa !20
  %199 = getelementptr inbounds nuw %struct.internal_state, ptr %198, i32 0, i32 27
  store i32 %197, ptr %199, align 4, !tbaa !56
  %200 = load ptr, ptr %8, align 8, !tbaa !20
  %201 = getelementptr inbounds nuw %struct.internal_state, ptr %200, i32 0, i32 29
  store i32 2, ptr %201, align 4, !tbaa !53
  %202 = load ptr, ptr %8, align 8, !tbaa !20
  call void @fill_window(ptr noundef %202)
  br label %123, !llvm.loop !64

203:                                              ; preds = %123
  %204 = load ptr, ptr %8, align 8, !tbaa !20
  %205 = getelementptr inbounds nuw %struct.internal_state, ptr %204, i32 0, i32 29
  %206 = load i32, ptr %205, align 4, !tbaa !53
  %207 = load ptr, ptr %8, align 8, !tbaa !20
  %208 = getelementptr inbounds nuw %struct.internal_state, ptr %207, i32 0, i32 27
  %209 = load i32, ptr %208, align 4, !tbaa !56
  %210 = add i32 %209, %206
  store i32 %210, ptr %208, align 4, !tbaa !56
  %211 = load ptr, ptr %8, align 8, !tbaa !20
  %212 = getelementptr inbounds nuw %struct.internal_state, ptr %211, i32 0, i32 27
  %213 = load i32, ptr %212, align 4, !tbaa !56
  %214 = zext i32 %213 to i64
  %215 = load ptr, ptr %8, align 8, !tbaa !20
  %216 = getelementptr inbounds nuw %struct.internal_state, ptr %215, i32 0, i32 23
  store i64 %214, ptr %216, align 8, !tbaa !57
  %217 = load ptr, ptr %8, align 8, !tbaa !20
  %218 = getelementptr inbounds nuw %struct.internal_state, ptr %217, i32 0, i32 29
  %219 = load i32, ptr %218, align 4, !tbaa !53
  %220 = load ptr, ptr %8, align 8, !tbaa !20
  %221 = getelementptr inbounds nuw %struct.internal_state, ptr %220, i32 0, i32 55
  store i32 %219, ptr %221, align 4, !tbaa !58
  %222 = load ptr, ptr %8, align 8, !tbaa !20
  %223 = getelementptr inbounds nuw %struct.internal_state, ptr %222, i32 0, i32 29
  store i32 0, ptr %223, align 4, !tbaa !53
  %224 = load ptr, ptr %8, align 8, !tbaa !20
  %225 = getelementptr inbounds nuw %struct.internal_state, ptr %224, i32 0, i32 30
  store i32 2, ptr %225, align 8, !tbaa !65
  %226 = load ptr, ptr %8, align 8, !tbaa !20
  %227 = getelementptr inbounds nuw %struct.internal_state, ptr %226, i32 0, i32 24
  store i32 2, ptr %227, align 8, !tbaa !66
  %228 = load ptr, ptr %8, align 8, !tbaa !20
  %229 = getelementptr inbounds nuw %struct.internal_state, ptr %228, i32 0, i32 26
  store i32 0, ptr %229, align 8, !tbaa !67
  %230 = load ptr, ptr %13, align 8, !tbaa !10
  %231 = load ptr, ptr %5, align 8, !tbaa !3
  %232 = getelementptr inbounds nuw %struct.z_stream_s, ptr %231, i32 0, i32 0
  store ptr %230, ptr %232, align 8, !tbaa !60
  %233 = load i32, ptr %12, align 4, !tbaa !8
  %234 = load ptr, ptr %5, align 8, !tbaa !3
  %235 = getelementptr inbounds nuw %struct.z_stream_s, ptr %234, i32 0, i32 1
  store i32 %233, ptr %235, align 8, !tbaa !59
  %236 = load i32, ptr %11, align 4, !tbaa !8
  %237 = load ptr, ptr %8, align 8, !tbaa !20
  %238 = getelementptr inbounds nuw %struct.internal_state, ptr %237, i32 0, i32 6
  store i32 %236, ptr %238, align 4, !tbaa !30
  store i32 0, ptr %4, align 4
  store i32 1, ptr %14, align 4
  br label %239

239:                                              ; preds = %203, %48, %25
  call void @llvm.lifetime.end.p0(i64 8, ptr %13) #5
  call void @llvm.lifetime.end.p0(i64 4, ptr %12) #5
  call void @llvm.lifetime.end.p0(i64 4, ptr %11) #5
  call void @llvm.lifetime.end.p0(i64 4, ptr %10) #5
  call void @llvm.lifetime.end.p0(i64 4, ptr %9) #5
  call void @llvm.lifetime.end.p0(i64 8, ptr %8) #5
  %240 = load i32, ptr %4, align 4
  ret i32 %240
}