; Function Attrs: nounwind uwtable
define range(i32 -2, 1) i32 @deflateSetDictionary(ptr noundef %0, ptr noundef %1, i32 noundef %2) local_unnamed_addr #0 {
  %4 = icmp eq ptr %0, null
  br i1 %4, label %103, label %5

5:                                                ; preds = %3
  %6 = getelementptr inbounds nuw i8, ptr %0, i64 56
  %7 = load ptr, ptr %6, align 8, !tbaa !16
  %8 = icmp eq ptr %7, null
  %9 = icmp eq ptr %1, null
  %or.cond = or i1 %9, %8
  br i1 %or.cond, label %103, label %10

10:                                               ; preds = %5
  %11 = getelementptr inbounds nuw i8, ptr %7, i64 44
  %12 = load i32, ptr %11, align 4, !tbaa !26
  switch i32 %12, label %.thread [
    i32 2, label %103
    i32 1, label %13
  ]

13:                                               ; preds = %10
  %14 = getelementptr inbounds nuw i8, ptr %7, i64 8
  %15 = load i32, ptr %14, align 8, !tbaa !42
  %.not = icmp eq i32 %15, 42
  br i1 %.not, label %16, label %103

16:                                               ; preds = %13
  %17 = getelementptr inbounds nuw i8, ptr %7, i64 164
  %18 = load i32, ptr %17, align 4, !tbaa !68
  %.not87 = icmp eq i32 %18, 0
  br i1 %.not87, label %.thread91.thread, label %103

.thread:                                          ; preds = %10
  %19 = getelementptr inbounds nuw i8, ptr %7, i64 164
  %20 = load i32, ptr %19, align 4, !tbaa !68
  %.not8790 = icmp eq i32 %20, 0
  br i1 %.not8790, label %.thread91, label %103

.thread91:                                        ; preds = %.thread
  store i32 0, ptr %11, align 4, !tbaa !26
  %21 = getelementptr inbounds nuw i8, ptr %7, i64 68
  %22 = load i32, ptr %21, align 4, !tbaa !29
  %.not88 = icmp ult i32 %2, %22
  br i1 %.not88, label %47, label %28

.thread91.thread:                                 ; preds = %16
  %23 = getelementptr inbounds nuw i8, ptr %0, i64 96
  %24 = load i64, ptr %23, align 8, !tbaa !53
  %25 = tail call i64 @adler32(i64 noundef %24, ptr noundef nonnull %1, i32 noundef %2) #10
  store i64 %25, ptr %23, align 8, !tbaa !53
  store i32 0, ptr %11, align 4, !tbaa !26
  %26 = getelementptr inbounds nuw i8, ptr %7, i64 68
  %27 = load i32, ptr %26, align 4, !tbaa !29
  %.not8894 = icmp ult i32 %2, %27
  br i1 %.not8894, label %47, label %.thread95

28:                                               ; preds = %.thread91
  %29 = icmp eq i32 %12, 0
  br i1 %29, label %30, label %.thread95

30:                                               ; preds = %28
  %31 = getelementptr inbounds nuw i8, ptr %7, i64 104
  %32 = load ptr, ptr %31, align 8, !tbaa !37
  %33 = getelementptr inbounds nuw i8, ptr %7, i64 116
  %34 = load i32, ptr %33, align 4, !tbaa !32
  %35 = add i32 %34, -1
  %36 = zext i32 %35 to i64
  %37 = getelementptr inbounds nuw i16, ptr %32, i64 %36
  store i16 0, ptr %37, align 2, !tbaa !56
  %38 = shl nuw nsw i64 %36, 1
  tail call void @llvm.memset.p0.i64(ptr align 1 %32, i8 0, i64 %38, i1 false)
  %39 = getelementptr inbounds nuw i8, ptr %7, i64 156
  store i32 0, ptr %39, align 4, !tbaa !66
  %40 = getelementptr inbounds nuw i8, ptr %7, i64 136
  store i64 0, ptr %40, align 8, !tbaa !67
  %41 = getelementptr inbounds nuw i8, ptr %7, i64 5916
  store i32 0, ptr %41, align 4, !tbaa !69
  %.pre = load i32, ptr %21, align 4, !tbaa !29
  br label %.thread95

.thread95:                                        ; preds = %.thread91.thread, %30, %28
  %42 = phi ptr [ %19, %30 ], [ %19, %28 ], [ %17, %.thread91.thread ]
  %43 = phi i32 [ %.pre, %30 ], [ %22, %28 ], [ %27, %.thread91.thread ]
  %44 = sub i32 %2, %43
  %45 = zext i32 %44 to i64
  %46 = getelementptr inbounds nuw i8, ptr %1, i64 %45
  br label %47

47:                                               ; preds = %.thread91.thread, %.thread95, %.thread91
  %48 = phi ptr [ %42, %.thread95 ], [ %19, %.thread91 ], [ %17, %.thread91.thread ]
  %.077 = phi i32 [ %43, %.thread95 ], [ %2, %.thread91 ], [ %2, %.thread91.thread ]
  %.076 = phi ptr [ %46, %.thread95 ], [ %1, %.thread91 ], [ %1, %.thread91.thread ]
  %49 = getelementptr inbounds nuw i8, ptr %0, i64 8
  %50 = load i32, ptr %49, align 8, !tbaa !74
  %51 = load ptr, ptr %0, align 8, !tbaa !75
  store i32 %.077, ptr %49, align 8, !tbaa !74
  store ptr %.076, ptr %0, align 8, !tbaa !75
  tail call fastcc void @fill_window(ptr noundef nonnull %7)
  %52 = load i32, ptr %48, align 4, !tbaa !68
  %53 = icmp ugt i32 %52, 2
  br i1 %53, label %.lr.ph, label %._crit_edge

.lr.ph:                                           ; preds = %47
  %54 = getelementptr inbounds nuw i8, ptr %7, i64 156
  %55 = getelementptr inbounds nuw i8, ptr %7, i64 112
  %56 = getelementptr inbounds nuw i8, ptr %7, i64 128
  %57 = getelementptr inbounds nuw i8, ptr %7, i64 80
  %58 = getelementptr inbounds nuw i8, ptr %7, i64 124
  %59 = getelementptr inbounds nuw i8, ptr %7, i64 104
  %60 = getelementptr inbounds nuw i8, ptr %7, i64 96
  %61 = getelementptr inbounds nuw i8, ptr %7, i64 76
  br label %62

62:                                               ; preds = %.lr.ph, %91
  %63 = phi i32 [ %52, %.lr.ph ], [ %92, %91 ]
  %64 = load i32, ptr %54, align 4, !tbaa !66
  %65 = add i32 %63, -2
  %66 = load i32, ptr %56, align 8, !tbaa !34
  %67 = load ptr, ptr %57, align 8, !tbaa !35
  %68 = load i32, ptr %58, align 4, !tbaa !33
  %69 = load ptr, ptr %59, align 8, !tbaa !37
  %70 = load ptr, ptr %60, align 8, !tbaa !36
  %71 = load i32, ptr %61, align 4, !tbaa !30
  %.promoted = load i32, ptr %55, align 8, !tbaa !73
  br label %72

72:                                               ; preds = %72, %62
  %73 = phi i32 [ %.promoted, %62 ], [ %81, %72 ]
  %.079 = phi i32 [ %64, %62 ], [ %89, %72 ]
  %.078 = phi i32 [ %65, %62 ], [ %90, %72 ]
  %74 = shl i32 %73, %66
  %75 = add i32 %.079, 2
  %76 = zext i32 %75 to i64
  %77 = getelementptr inbounds nuw i8, ptr %67, i64 %76
  %78 = load i8, ptr %77, align 1, !tbaa !3
  %79 = zext i8 %78 to i32
  %80 = xor i32 %74, %79
  %81 = and i32 %80, %68
  store i32 %81, ptr %55, align 8, !tbaa !73
  %82 = zext i32 %81 to i64
  %83 = getelementptr inbounds nuw i16, ptr %69, i64 %82
  %84 = load i16, ptr %83, align 2, !tbaa !56
  %85 = and i32 %71, %.079
  %86 = zext i32 %85 to i64
  %87 = getelementptr inbounds nuw i16, ptr %70, i64 %86
  store i16 %84, ptr %87, align 2, !tbaa !56
  %88 = trunc i32 %.079 to i16
  store i16 %88, ptr %83, align 2, !tbaa !56
  %89 = add i32 %.079, 1
  %90 = add i32 %.078, -1
  %.not89 = icmp eq i32 %90, 0
  br i1 %.not89, label %91, label %72, !llvm.loop !76

91:                                               ; preds = %72
  store i32 %89, ptr %54, align 4, !tbaa !66
  store i32 2, ptr %48, align 4, !tbaa !68
  tail call fastcc void @fill_window(ptr noundef nonnull %7)
  %92 = load i32, ptr %48, align 4, !tbaa !68
  %93 = icmp ugt i32 %92, 2
  br i1 %93, label %62, label %._crit_edge, !llvm.loop !78

._crit_edge:                                      ; preds = %91, %47
  %.lcssa92 = phi i32 [ %52, %47 ], [ %92, %91 ]
  %94 = getelementptr inbounds nuw i8, ptr %7, i64 156
  %95 = load i32, ptr %94, align 4, !tbaa !66
  %96 = add i32 %95, %.lcssa92
  store i32 %96, ptr %94, align 4, !tbaa !66
  %97 = zext i32 %96 to i64
  %98 = getelementptr inbounds nuw i8, ptr %7, i64 136
  store i64 %97, ptr %98, align 8, !tbaa !67
  %99 = getelementptr inbounds nuw i8, ptr %7, i64 5916
  store i32 %.lcssa92, ptr %99, align 4, !tbaa !69
  store i32 0, ptr %48, align 4, !tbaa !68
  %100 = getelementptr inbounds nuw i8, ptr %7, i64 168
  store i32 2, ptr %100, align 8, !tbaa !70
  %101 = getelementptr inbounds nuw i8, ptr %7, i64 144
  store i32 2, ptr %101, align 8, !tbaa !71
  %102 = getelementptr inbounds nuw i8, ptr %7, i64 152
  store i32 0, ptr %102, align 8, !tbaa !72
  store ptr %51, ptr %0, align 8, !tbaa !75
  store i32 %50, ptr %49, align 8, !tbaa !74
  store i32 %12, ptr %11, align 4, !tbaa !26
  br label %103

103:                                              ; preds = %10, %.thread, %13, %16, %3, %5, %._crit_edge
  %.0 = phi i32 [ 0, %._crit_edge ], [ -2, %5 ], [ -2, %3 ], [ -2, %16 ], [ -2, %13 ], [ -2, %10 ], [ -2, %.thread ]
  ret i32 %.0
}